target datalayout = "e-m:e-p270:32:32-p271:32:32-p272:64:64-i64:64-i128:128-f80:128-n8:16:32:64-S128"
target triple = "x86_64-pc-linux-gnu"

%struct.uv__process_title = type { ptr, i64, i64 }
%union.pthread_mutex_t = type { %struct.__pthread_mutex_s }
%struct.__pthread_mutex_s = type { i32, i32, i32, i32, i32, i16, i16, %struct.__pthread_internal_list }
%struct.__pthread_internal_list = type { ptr, ptr }

@args_mem = internal global ptr null, align 8
@process_title = internal global %struct.uv__process_title zeroinitializer, align 8
@process_title_mutex_once = internal global i32 0, align 4
@process_title_mutex = internal global %union.pthread_mutex_t zeroinitializer, align 8

; Function Attrs: nounwind uwtable
define dso_local i32 @uv_set_process_title(ptr noundef %0) #0 {
  %2 = alloca i32, align 4
  %3 = alloca ptr, align 8
  %4 = alloca ptr, align 8
  %5 = alloca i64, align 8
  %6 = alloca i32, align 4
  store ptr %0, ptr %3, align 8, !tbaa !11
  call void @llvm.lifetime.start.p0(i64 8, ptr %4) #6
  call void @llvm.lifetime.start.p0(i64 8, ptr %5) #6
  %7 = load ptr, ptr @args_mem, align 8, !tbaa !22
  %8 = icmp eq ptr %7, null
  br i1 %8, label %9, label %10

9:                                                ; preds = %1
  store i32 -105, ptr %2, align 4
  store i32 1, ptr %6, align 4
  br label %51

10:                                               ; preds = %1
  store ptr @process_title, ptr %4, align 8, !tbaa !24
  %11 = load ptr, ptr %3, align 8, !tbaa !11
  %12 = call i64 @strlen(ptr noundef %11) #7
  store i64 %12, ptr %5, align 8, !tbaa !18
  call void @uv_once(ptr noundef @process_title_mutex_once, ptr noundef @init_process_title_mutex_once)
  call void @uv_mutex_lock(ptr noundef @process_title_mutex)
  %13 = load i64, ptr %5, align 8, !tbaa !18
  %14 = load ptr, ptr %4, align 8, !tbaa !24
  %15 = getelementptr inbounds nuw %struct.uv__process_title, ptr %14, i32 0, i32 2
  %16 = load i64, ptr %15, align 8, !tbaa !17
  %17 = icmp uge i64 %13, %16
  br i1 %17, label %18, label %29

18:                                               ; preds = %10
  store i64 0, ptr %5, align 8, !tbaa !18
  %19 = load ptr, ptr %4, align 8, !tbaa !24
  %20 = getelementptr inbounds nuw %struct.uv__process_title, ptr %19, i32 0, i32 2
  %21 = load i64, ptr %20, align 8, !tbaa !17
  %22 = icmp ugt i64 %21, 0
  br i1 %22, label %23, label %28

23:                                               ; preds = %18
  %24 = load ptr, ptr %4, align 8, !tbaa !24
  %25 = getelementptr inbounds nuw %struct.uv__process_title, ptr %24, i32 0, i32 2
  %26 = load i64, ptr %25, align 8, !tbaa !17
  %27 = sub i64 %26, 1
  store i64 %27, ptr %5, align 8, !tbaa !18
  br label %28

28:                                               ; preds = %23, %18
  br label %29

29:                                               ; preds = %28, %10
  %30 = load ptr, ptr %4, align 8, !tbaa !24
  %31 = getelementptr inbounds nuw %struct.uv__process_title, ptr %30, i32 0, i32 0
  %32 = load ptr, ptr %31, align 8, !tbaa !13
  %33 = load ptr, ptr %3, align 8, !tbaa !11
  %34 = load i64, ptr %5, align 8, !tbaa !18
  call void @llvm.memcpy.p0.p0.i64(ptr align 1 %32, ptr align 1 %33, i64 %34, i1 false)
  %35 = load ptr, ptr %4, align 8, !tbaa !24
  %36 = getelementptr inbounds nuw %struct.uv__process_title, ptr %35, i32 0, i32 0
  %37 = load ptr, ptr %36, align 8, !tbaa !13
  %38 = load i64, ptr %5, align 8, !tbaa !18
  %39 = getelementptr inbounds nuw i8, ptr %37, i64 %38
  %40 = load ptr, ptr %4, align 8, !tbaa !24
  %41 = getelementptr inbounds nuw %struct.uv__process_title, ptr %40, i32 0, i32 2
  %42 = load i64, ptr %41, align 8, !tbaa !17
  %43 = load i64, ptr %5, align 8, !tbaa !18
  %44 = sub i64 %42, %43
  call void @llvm.memset.p0.i64(ptr align 1 %39, i8 0, i64 %44, i1 false)
  %45 = load i64, ptr %5, align 8, !tbaa !18
  %46 = load ptr, ptr %4, align 8, !tbaa !24
  %47 = getelementptr inbounds nuw %struct.uv__process_title, ptr %46, i32 0, i32 1
  store i64 %45, ptr %47, align 8, !tbaa !16
  %48 = load ptr, ptr %4, align 8, !tbaa !24
  %49 = getelementptr inbounds nuw %struct.uv__process_title, ptr %48, i32 0, i32 0
  %50 = load ptr, ptr %49, align 8, !tbaa !13
  call void @uv__set_process_title(ptr noundef %50)
  call void @uv_mutex_unlock(ptr noundef @process_title_mutex)
  store i32 0, ptr %2, align 4
  store i32 1, ptr %6, align 4
  br label %51

51:                                               ; preds = %29, %9
  call void @llvm.lifetime.end.p0(i64 8, ptr %5) #6
  call void @llvm.lifetime.end.p0(i64 8, ptr %4) #6
  %52 = load i32, ptr %2, align 4
  ret i32 %52
}