; Function Attrs: nounwind uwtable
define dso_local range(i32 -105, 1) i32 @uv_set_process_title(ptr noundef readonly captures(none) %0) local_unnamed_addr #0 {
  %2 = load ptr, ptr @args_mem, align 8, !tbaa !11
  %3 = icmp eq ptr %2, null
  br i1 %3, label %10, label %4

4:                                                ; preds = %1
  %5 = tail call i64 @strlen(ptr noundef nonnull dereferenceable(1) %0) #6
  tail call void @uv_once(ptr noundef nonnull @process_title_mutex_once, ptr noundef nonnull @init_process_title_mutex_once) #7
  tail call void @uv_mutex_lock(ptr noundef nonnull @process_title_mutex) #7
  %6 = load i64, ptr @process_title.2, align 8, !tbaa !14
  %.not = icmp ult i64 %5, %6
  %spec.select = tail call i64 @llvm.usub.sat.i64(i64 %6, i64 1)
  %.0 = select i1 %.not, i64 %5, i64 %spec.select
  %7 = load ptr, ptr @process_title.0, align 8, !tbaa !16
  tail call void @llvm.memcpy.p0.p0.i64(ptr align 1 %7, ptr nonnull align 1 %0, i64 %.0, i1 false)
  %8 = getelementptr inbounds nuw i8, ptr %7, i64 %.0
  %9 = sub i64 %6, %.0
  tail call void @llvm.memset.p0.i64(ptr align 1 %8, i8 0, i64 %9, i1 false)
  store i64 %.0, ptr @process_title.1, align 8, !tbaa !17
  tail call void @uv__set_process_title(ptr noundef %7) #7
  tail call void @uv_mutex_unlock(ptr noundef nonnull @process_title_mutex) #7
  br label %10

10:                                               ; preds = %1, %4
  %.015 = phi i32 [ 0, %4 ], [ -105, %1 ]
  ret i32 %.015
}